; ModuleID = '4/2088.c'
source_filename = "4/2088.c"
target datalayout = "e-m:e-p270:32:32-p271:32:32-p272:64:64-i64:64-f80:128-n8:16:32:64-S128"
target triple = "x86_64-pc-linux-gnu"

@.str = private unnamed_addr constant [6 x i8] c"%d %d\00", align 1
@.str.1 = private unnamed_addr constant [3 x i8] c"%d\00", align 1
@.str.2 = private unnamed_addr constant [4 x i8] c"%d\0A\00", align 1

; Function Attrs: noinline nounwind uwtable
define dso_local i32 @main() #0 {
  %1 = alloca i32, align 4
  %2 = alloca i32, align 4
  %3 = alloca i32, align 4
  %4 = alloca [1000 x [1000 x i32]], align 16
  %5 = alloca i32, align 4
  %6 = alloca i32, align 4
  %7 = alloca i32, align 4
  %8 = alloca i32, align 4
  store i32 0, i32* %1, align 4
  %9 = call i32 (i8*, ...) @__isoc99_scanf(i8* getelementptr inbounds ([6 x i8], [6 x i8]* @.str, i64 0, i64 0), i32* %2, i32* %3)
  store i32 0, i32* %5, align 4
  br label %10

10:                                               ; preds = %31, %0
  %11 = load i32, i32* %5, align 4
  %12 = load i32, i32* %2, align 4
  %13 = icmp slt i32 %11, %12
  br i1 %13, label %14, label %34

14:                                               ; preds = %10
  store i32 0, i32* %6, align 4
  br label %15

15:                                               ; preds = %27, %14
  %16 = load i32, i32* %6, align 4
  %17 = load i32, i32* %3, align 4
  %18 = icmp slt i32 %16, %17
  br i1 %18, label %19, label %30

19:                                               ; preds = %15
  %20 = load i32, i32* %5, align 4
  %21 = sext i32 %20 to i64
  %22 = getelementptr inbounds [1000 x [1000 x i32]], [1000 x [1000 x i32]]* %4, i64 0, i64 %21
  %23 = load i32, i32* %6, align 4
  %24 = sext i32 %23 to i64
  %25 = getelementptr inbounds [1000 x i32], [1000 x i32]* %22, i64 0, i64 %24
  %26 = call i32 (i8*, ...) @__isoc99_scanf(i8* getelementptr inbounds ([3 x i8], [3 x i8]* @.str.1, i64 0, i64 0), i32* %25)
  br label %27

27:                                               ; preds = %19
  %28 = load i32, i32* %6, align 4
  %29 = add nsw i32 %28, 1
  store i32 %29, i32* %6, align 4
  br label %15

30:                                               ; preds = %15
  br label %31

31:                                               ; preds = %30
  %32 = load i32, i32* %5, align 4
  %33 = add nsw i32 %32, 1
  store i32 %33, i32* %5, align 4
  br label %10

34:                                               ; preds = %10
  store i32 0, i32* %7, align 4
  br label %35

35:                                               ; preds = %65, %34
  %36 = load i32, i32* %7, align 4
  %37 = load i32, i32* %3, align 4
  %38 = icmp slt i32 %36, %37
  br i1 %38, label %39, label %68

39:                                               ; preds = %35
  %40 = load i32, i32* %7, align 4
  store i32 %40, i32* %6, align 4
  store i32 0, i32* %5, align 4
  br label %41

41:                                               ; preds = %59, %39
  %42 = load i32, i32* %5, align 4
  %43 = load i32, i32* %2, align 4
  %44 = icmp slt i32 %42, %43
  br i1 %44, label %45, label %48

45:                                               ; preds = %41
  %46 = load i32, i32* %6, align 4
  %47 = icmp sge i32 %46, 0
  br label %48

48:                                               ; preds = %45, %41
  %49 = phi i1 [ false, %41 ], [ %47, %45 ]
  br i1 %49, label %50, label %64

50:                                               ; preds = %48
  %51 = load i32, i32* %5, align 4
  %52 = sext i32 %51 to i64
  %53 = getelementptr inbounds [1000 x [1000 x i32]], [1000 x [1000 x i32]]* %4, i64 0, i64 %52
  %54 = load i32, i32* %6, align 4
  %55 = sext i32 %54 to i64
  %56 = getelementptr inbounds [1000 x i32], [1000 x i32]* %53, i64 0, i64 %55
  %57 = load i32, i32* %56, align 4
  %58 = call i32 (i8*, ...) @printf(i8* getelementptr inbounds ([4 x i8], [4 x i8]* @.str.2, i64 0, i64 0), i32 %57)
  br label %59

59:                                               ; preds = %50
  %60 = load i32, i32* %5, align 4
  %61 = add nsw i32 %60, 1
  store i32 %61, i32* %5, align 4
  %62 = load i32, i32* %6, align 4
  %63 = add nsw i32 %62, -1
  store i32 %63, i32* %6, align 4
  br label %41

64:                                               ; preds = %48
  br label %65

65:                                               ; preds = %64
  %66 = load i32, i32* %7, align 4
  %67 = add nsw i32 %66, 1
  store i32 %67, i32* %7, align 4
  br label %35

68:                                               ; preds = %35
  store i32 1, i32* %8, align 4
  br label %69

69:                                               ; preds = %101, %68
  %70 = load i32, i32* %8, align 4
  %71 = load i32, i32* %2, align 4
  %72 = icmp slt i32 %70, %71
  br i1 %72, label %73, label %104

73:                                               ; preds = %69
  %74 = load i32, i32* %8, align 4
  store i32 %74, i32* %5, align 4
  %75 = load i32, i32* %3, align 4
  %76 = sub nsw i32 %75, 1
  store i32 %76, i32* %6, align 4
  br label %77

77:                                               ; preds = %95, %73
  %78 = load i32, i32* %5, align 4
  %79 = load i32, i32* %2, align 4
  %80 = icmp slt i32 %78, %79
  br i1 %80, label %81, label %84

81:                                               ; preds = %77
  %82 = load i32, i32* %6, align 4
  %83 = icmp sge i32 %82, 0
  br label %84

84:                                               ; preds = %81, %77
  %85 = phi i1 [ false, %77 ], [ %83, %81 ]
  br i1 %85, label %86, label %100

86:                                               ; preds = %84
  %87 = load i32, i32* %5, align 4
  %88 = sext i32 %87 to i64
  %89 = getelementptr inbounds [1000 x [1000 x i32]], [1000 x [1000 x i32]]* %4, i64 0, i64 %88
  %90 = load i32, i32* %6, align 4
  %91 = sext i32 %90 to i64
  %92 = getelementptr inbounds [1000 x i32], [1000 x i32]* %89, i64 0, i64 %91
  %93 = load i32, i32* %92, align 4
  %94 = call i32 (i8*, ...) @printf(i8* getelementptr inbounds ([4 x i8], [4 x i8]* @.str.2, i64 0, i64 0), i32 %93)
  br label %95

95:                                               ; preds = %86
  %96 = load i32, i32* %5, align 4
  %97 = add nsw i32 %96, 1
  store i32 %97, i32* %5, align 4
  %98 = load i32, i32* %6, align 4
  %99 = add nsw i32 %98, -1
  store i32 %99, i32* %6, align 4
  br label %77

100:                                              ; preds = %84
  br label %101

101:                                              ; preds = %100
  %102 = load i32, i32* %8, align 4
  %103 = add nsw i32 %102, 1
  store i32 %103, i32* %8, align 4
  br label %69

104:                                              ; preds = %69
  ret i32 0
}

declare dso_local i32 @__isoc99_scanf(i8*, ...) #1

declare dso_local i32 @printf(i8*, ...) #1


!llvm.module.flags = !{!0}
!llvm.ident = !{!1}

!0 = !{i32 1, !"wchar_size", i32 4}
!1 = !{!"clang version 10.0.0-4ubuntu1 "}
